#include <math.h>
#include <stdio.h>
#include <stdlib.h>
#include <string.h>
#include <iostream>
using namespace std;

int main()
{
	char str[81];
	int i, j, n, p;
	cin >> n;
	cin.get();
	for (i = 0; i < n; i++)
	{
		p = 1;
		cin.getline(str, 81);
		if ((str[0] == '_') || ((str[0] >= 'a') && (str[0] <= 'z')) || ((str[0] >= 'A') && (str[0] <= 'Z')))
		{
			for (j = 1; ; j++)
			{
				if (str[j] == '\0')
					break;
				else if ((str[j] == '_') || ((str[j] >= 'a') && (str[j] <= 'z')) || ((str[j] >= 'A') && (str[j] <= 'Z')) || ((str[j] >= '0') && (str[j] <= '9')))
						p = 1;
					else 
					{
						p = 0;
						break;
					}
			}
				cout << p << endl;
		}
		else 
			cout << '0' << endl;
	}
	return 0;
}